; Function Attrs: nounwind uwtable
define void @Java_sun_awt_image_ImageRepresentation_initIDs(ptr noundef %0, ptr noundef %1) local_unnamed_addr #0 {
  %3 = load ptr, ptr %0, align 8
  %4 = getelementptr inbounds i8, ptr %3, i64 752
  %5 = load ptr, ptr %4, align 8
  %6 = tail call ptr %5(ptr noundef nonnull %0, ptr noundef %1, ptr noundef nonnull @.str, ptr noundef nonnull @.str.1) #4
  store ptr %6, ptr @s_JnumSrcLUTID, align 8
  %7 = icmp eq ptr %6, null
  br i1 %7, label %13, label %8

8:                                                ; preds = %2
  %9 = load ptr, ptr %0, align 8
  %10 = getelementptr inbounds i8, ptr %9, i64 752
  %11 = load ptr, ptr %10, align 8
  %12 = tail call ptr %11(ptr noundef nonnull %0, ptr noundef %1, ptr noundef nonnull @.str.2, ptr noundef nonnull @.str.1) #4
  store ptr %12, ptr @s_JsrcLUTtransIndexID, align 8
  br label %13

13:                                               ; preds = %8, %2
  ret void
}